; Function Attrs: nounwind uwtable
define noalias noundef nonnull ptr @l_Lean_Parser_Tactic___aux__Init__Tactics______macroRules__Lean__Parser__Tactic__tacticTrivial__4(ptr noundef %0, ptr noundef readonly captures(none) %1, ptr noundef %2) local_unnamed_addr #0 {
  %4 = load ptr, ptr @l_Lean_Parser_Tactic_tacticTrivial___closed__2, align 8, !tbaa !4
  %5 = tail call zeroext i8 @l_Lean_Syntax_isOfKind(ptr noundef %0, ptr noundef %4) #5
  %6 = icmp eq i8 %5, 0
  br i1 %6, label %7, label %11

7:                                                ; preds = %3
  tail call void @lean_inc_heartbeat() #5
  %8 = tail call noalias ptr @mi_malloc_small(i64 noundef 24) #5
  %9 = icmp eq ptr %8, null
  br i1 %9, label %10, label %lean_alloc_ctor.exit

10:                                               ; preds = %7
  tail call void @lean_internal_panic_out_of_memory() #6
  unreachable

11:                                               ; preds = %3
  %12 = getelementptr inbounds nuw i8, ptr %1, i64 48
  %13 = load ptr, ptr %12, align 8, !tbaa !4
  %14 = tail call ptr @l_Lean_SourceInfo_fromRef(ptr noundef %13, i8 noundef zeroext 0) #5
  %15 = load ptr, ptr @l_Lean_Parser_Tactic_decide___closed__1, align 8, !tbaa !4
  %16 = ptrtoint ptr %14 to i64
  %17 = and i64 %16, 1
  %.not = icmp eq i64 %17, 0
  br i1 %.not, label %18, label %lean_inc.exit37

18:                                               ; preds = %11
  %.val.i = load i32, ptr %14, align 4, !tbaa !8
  %19 = icmp sgt i32 %.val.i, 0
  br i1 %19, label %20, label %22, !prof !11

20:                                               ; preds = %18
  %21 = add nuw i32 %.val.i, 1
  store i32 %21, ptr %14, align 4, !tbaa !8
  br label %lean_inc.exit37

22:                                               ; preds = %18
  %.not.i = icmp eq i32 %.val.i, 0
  br i1 %.not.i, label %lean_inc.exit37, label %23

23:                                               ; preds = %22
  tail call void @lean_inc_ref_cold(ptr noundef nonnull %14) #5
  br label %lean_inc.exit37

lean_inc.exit37:                                  ; preds = %23, %22, %20, %11
  tail call void @lean_inc_heartbeat() #5
  %24 = tail call noalias ptr @mi_malloc_small(i64 noundef 24) #5
  %25 = icmp eq ptr %24, null
  br i1 %25, label %26, label %lean_alloc_ctor.exit38

26:                                               ; preds = %lean_inc.exit37
  tail call void @lean_internal_panic_out_of_memory() #6
  unreachable

lean_alloc_ctor.exit38:                           ; preds = %lean_inc.exit37
  %27 = getelementptr inbounds nuw i8, ptr %24, i64 4
  store i32 1, ptr %24, align 4, !tbaa !8
  store i32 33685528, ptr %27, align 4
  %28 = getelementptr inbounds nuw i8, ptr %24, i64 8
  store ptr %14, ptr %28, align 8, !tbaa !4
  %29 = getelementptr inbounds nuw i8, ptr %24, i64 16
  store ptr %15, ptr %29, align 8, !tbaa !4
  %30 = load ptr, ptr @l_Lean_Parser_Tactic___aux__Init__Tactics______macroRules__Lean__Parser__Tactic__tacticExfalso__1___closed__12, align 8, !tbaa !4
  %31 = load ptr, ptr @l_Lean_Parser_Tactic___aux__Init__Tactics______macroRules__Lean__Parser__Tactic__tacticNext___x3d_x3e____1___closed__6, align 8, !tbaa !4
  br i1 %.not, label %32, label %lean_inc.exit36

32:                                               ; preds = %lean_alloc_ctor.exit38
  %.val.i39 = load i32, ptr %14, align 4, !tbaa !8
  %33 = icmp sgt i32 %.val.i39, 0
  br i1 %33, label %34, label %36, !prof !11

34:                                               ; preds = %32
  %35 = add nuw i32 %.val.i39, 1
  store i32 %35, ptr %14, align 4, !tbaa !8
  br label %lean_inc.exit36

36:                                               ; preds = %32
  %.not.i40 = icmp eq i32 %.val.i39, 0
  br i1 %.not.i40, label %lean_inc.exit36, label %37

37:                                               ; preds = %36
  tail call void @lean_inc_ref_cold(ptr noundef nonnull %14) #5
  br label %lean_inc.exit36

lean_inc.exit36:                                  ; preds = %37, %36, %34, %lean_alloc_ctor.exit38
  tail call void @lean_inc_heartbeat() #5
  %38 = tail call noalias ptr @mi_malloc_small(i64 noundef 32) #5
  %39 = icmp eq ptr %38, null
  br i1 %39, label %40, label %lean_alloc_ctor.exit42

40:                                               ; preds = %lean_inc.exit36
  tail call void @lean_internal_panic_out_of_memory() #6
  unreachable

lean_alloc_ctor.exit42:                           ; preds = %lean_inc.exit36
  %41 = getelementptr inbounds nuw i8, ptr %38, i64 4
  store i32 1, ptr %38, align 4, !tbaa !8
  store i32 16973856, ptr %41, align 4
  %42 = getelementptr inbounds nuw i8, ptr %38, i64 8
  store ptr %14, ptr %42, align 8, !tbaa !4
  %43 = getelementptr inbounds nuw i8, ptr %38, i64 16
  store ptr %30, ptr %43, align 8, !tbaa !4
  %44 = getelementptr inbounds nuw i8, ptr %38, i64 24
  store ptr %31, ptr %44, align 8, !tbaa !4
  %45 = load ptr, ptr @l_Lean_Parser_Tactic_optConfig___closed__2, align 8, !tbaa !4
  br i1 %.not, label %46, label %lean_inc.exit

46:                                               ; preds = %lean_alloc_ctor.exit42
  %.val.i43 = load i32, ptr %14, align 4, !tbaa !8
  %47 = icmp sgt i32 %.val.i43, 0
  br i1 %47, label %48, label %50, !prof !11

48:                                               ; preds = %46
  %49 = add nuw i32 %.val.i43, 1
  store i32 %49, ptr %14, align 4, !tbaa !8
  br label %lean_inc.exit

50:                                               ; preds = %46
  %.not.i44 = icmp eq i32 %.val.i43, 0
  br i1 %.not.i44, label %lean_inc.exit, label %51

51:                                               ; preds = %50
  tail call void @lean_inc_ref_cold(ptr noundef nonnull %14) #5
  br label %lean_inc.exit

lean_inc.exit:                                    ; preds = %51, %50, %48, %lean_alloc_ctor.exit42
  %52 = tail call ptr @l_Lean_Syntax_node1(ptr noundef %14, ptr noundef %45, ptr noundef nonnull %38) #5
  %53 = load ptr, ptr @l_Lean_Parser_Tactic_decide___closed__2, align 8, !tbaa !4
  %54 = tail call ptr @l_Lean_Syntax_node2(ptr noundef %14, ptr noundef %53, ptr noundef nonnull %24, ptr noundef %52) #5
  tail call void @lean_inc_heartbeat() #5
  %55 = tail call noalias ptr @mi_malloc_small(i64 noundef 24) #5
  %56 = icmp eq ptr %55, null
  br i1 %56, label %57, label %lean_alloc_ctor.exit

57:                                               ; preds = %lean_inc.exit
  tail call void @lean_internal_panic_out_of_memory() #6
  unreachable

lean_alloc_ctor.exit:                             ; preds = %lean_inc.exit, %7
  %.sink53 = phi ptr [ %8, %7 ], [ %55, %lean_inc.exit ]
  %.sink50 = phi i32 [ 16908312, %7 ], [ 131096, %lean_inc.exit ]
  %.sink = phi ptr [ inttoptr (i64 3 to ptr), %7 ], [ %54, %lean_inc.exit ]
  %58 = getelementptr inbounds nuw i8, ptr %.sink53, i64 4
  store i32 1, ptr %.sink53, align 4, !tbaa !8
  store i32 %.sink50, ptr %58, align 4
  %59 = getelementptr inbounds nuw i8, ptr %.sink53, i64 8
  store ptr %.sink, ptr %59, align 8, !tbaa !4
  %60 = getelementptr inbounds nuw i8, ptr %.sink53, i64 16
  store ptr %2, ptr %60, align 8, !tbaa !4
  ret ptr %.sink53
}